
Wi-Fi_driver.o:     file format elf32-littlearm


Disassembly of section .text.WiFiSendCommandWait:

00000000 <WiFiSendCommandWait>:
   0:	b580      	push	{r7, lr}
   2:	b082      	sub	sp, #8
   4:	af00      	add	r7, sp, #0
   6:	6078      	str	r0, [r7, #4]
   8:	6039      	str	r1, [r7, #0]
   a:	6878      	ldr	r0, [r7, #4]
   c:	f44f 5140 	mov.w	r1, #12288	; 0x3000
  10:	f2c4 0101 	movt	r1, #16385	; 0x4001
  14:	f7ff fffe 	bl	0 <function_UART_send>
  18:	6878      	ldr	r0, [r7, #4]
  1a:	f44f 4150 	mov.w	r1, #53248	; 0xd000
  1e:	f2c4 0100 	movt	r1, #16384	; 0x4000
  22:	f7ff fffe 	bl	0 <function_UART_send>
  26:	f240 0300 	movw	r3, #0
  2a:	f2c0 0300 	movt	r3, #0
  2e:	2200      	movs	r2, #0
  30:	601a      	str	r2, [r3, #0]
  32:	f240 0300 	movw	r3, #0
  36:	f2c0 0300 	movt	r3, #0
  3a:	681a      	ldr	r2, [r3, #0]
  3c:	f240 0300 	movw	r3, #0
  40:	f2c0 0300 	movt	r3, #0
  44:	2100      	movs	r1, #0
  46:	5499      	strb	r1, [r3, r2]
  48:	e05b      	b.n	102 <WiFiSendCommandWait+0x102>
  4a:	f240 0000 	movw	r0, #0
  4e:	f2c0 0000 	movt	r0, #0
  52:	f44f 5140 	mov.w	r1, #12288	; 0x3000
  56:	f2c4 0101 	movt	r1, #16385	; 0x4001
  5a:	f7ff fffe 	bl	0 <function_UART_recv>
  5e:	f240 0000 	movw	r0, #0
  62:	f2c0 0000 	movt	r0, #0
  66:	f7ff fffe 	bl	0 <function_OS_strlen>
  6a:	4603      	mov	r3, r0
  6c:	461a      	mov	r2, r3
  6e:	f240 0300 	movw	r3, #0
  72:	f2c0 0300 	movt	r3, #0
  76:	601a      	str	r2, [r3, #0]
  78:	f240 0300 	movw	r3, #0
  7c:	f2c0 0300 	movt	r3, #0
  80:	681b      	ldr	r3, [r3, #0]
  82:	1e5a      	subs	r2, r3, #1
  84:	f240 0300 	movw	r3, #0
  88:	f2c0 0300 	movt	r3, #0
  8c:	5c9b      	ldrb	r3, [r3, r2]
  8e:	2b0a      	cmp	r3, #10
  90:	d137      	bne.n	102 <WiFiSendCommandWait+0x102>
  92:	6838      	ldr	r0, [r7, #0]
  94:	f240 0100 	movw	r1, #0
  98:	f2c0 0100 	movt	r1, #0
  9c:	f7ff fffe 	bl	0 <function_OS_strcmp>
  a0:	4603      	mov	r3, r0
  a2:	2b00      	cmp	r3, #0
  a4:	d11c      	bne.n	e0 <WiFiSendCommandWait+0xe0>
  a6:	f240 0000 	movw	r0, #0
  aa:	f2c0 0000 	movt	r0, #0
  ae:	f44f 4150 	mov.w	r1, #53248	; 0xd000
  b2:	f2c4 0100 	movt	r1, #16384	; 0x4000
  b6:	f7ff fffe 	bl	0 <function_UART_send>
  ba:	f240 0300 	movw	r3, #0
  be:	f2c0 0300 	movt	r3, #0
  c2:	2200      	movs	r2, #0
  c4:	601a      	str	r2, [r3, #0]
  c6:	f240 0300 	movw	r3, #0
  ca:	f2c0 0300 	movt	r3, #0
  ce:	681a      	ldr	r2, [r3, #0]
  d0:	f240 0300 	movw	r3, #0
  d4:	f2c0 0300 	movt	r3, #0
  d8:	2100      	movs	r1, #0
  da:	5499      	strb	r1, [r3, r2]
  dc:	2301      	movs	r3, #1
  de:	e029      	b.n	134 <WiFiSendCommandWait+0x134>
  e0:	f240 0300 	movw	r3, #0
  e4:	f2c0 0300 	movt	r3, #0
  e8:	2200      	movs	r2, #0
  ea:	601a      	str	r2, [r3, #0]
  ec:	f240 0300 	movw	r3, #0
  f0:	f2c0 0300 	movt	r3, #0
  f4:	681a      	ldr	r2, [r3, #0]
  f6:	f240 0300 	movw	r3, #0
  fa:	f2c0 0300 	movt	r3, #0
  fe:	2100      	movs	r1, #0
 100:	5499      	strb	r1, [r3, r2]
 102:	f240 0300 	movw	r3, #0
 106:	f2c0 0300 	movt	r3, #0
 10a:	681b      	ldr	r3, [r3, #0]
 10c:	2b7e      	cmp	r3, #126	; 0x7e
 10e:	d99c      	bls.n	4a <WiFiSendCommandWait+0x4a>
 110:	f240 0300 	movw	r3, #0
 114:	f2c0 0300 	movt	r3, #0
 118:	2200      	movs	r2, #0
 11a:	601a      	str	r2, [r3, #0]
 11c:	f240 0300 	movw	r3, #0
 120:	f2c0 0300 	movt	r3, #0
 124:	681a      	ldr	r2, [r3, #0]
 126:	f240 0300 	movw	r3, #0
 12a:	f2c0 0300 	movt	r3, #0
 12e:	2100      	movs	r1, #0
 130:	5499      	strb	r1, [r3, r2]
 132:	2300      	movs	r3, #0
 134:	4618      	mov	r0, r3
 136:	3708      	adds	r7, #8
 138:	46bd      	mov	sp, r7
 13a:	bd80      	pop	{r7, pc}

Disassembly of section .text.function_WiFi_init:

00000000 <function_WiFi_init>:
   0:	b580      	push	{r7, lr}
   2:	b082      	sub	sp, #8
   4:	af00      	add	r7, sp, #0
   6:	2364      	movs	r3, #100	; 0x64
   8:	607b      	str	r3, [r7, #4]
   a:	f240 0300 	movw	r3, #0
   e:	f2c0 0300 	movt	r3, #0
  12:	2200      	movs	r2, #0
  14:	601a      	str	r2, [r3, #0]
  16:	f240 0300 	movw	r3, #0
  1a:	f2c0 0300 	movt	r3, #0
  1e:	681a      	ldr	r2, [r3, #0]
  20:	f240 0300 	movw	r3, #0
  24:	f2c0 0300 	movt	r3, #0
  28:	2100      	movs	r1, #0
  2a:	5499      	strb	r1, [r3, r2]
  2c:	f240 0300 	movw	r3, #0
  30:	f2c0 0300 	movt	r3, #0
  34:	2200      	movs	r2, #0
  36:	601a      	str	r2, [r3, #0]
  38:	f240 0300 	movw	r3, #0
  3c:	f2c0 0300 	movt	r3, #0
  40:	681a      	ldr	r2, [r3, #0]
  42:	f240 0300 	movw	r3, #0
  46:	f2c0 0300 	movt	r3, #0
  4a:	2100      	movs	r1, #0
  4c:	5499      	strb	r1, [r3, r2]
  4e:	f641 0001 	movw	r0, #6145	; 0x1801
  52:	f2cf 0000 	movt	r0, #61440	; 0xf000
  56:	f7ff fffe 	bl	0 <SysCtlPeripheralEnable>
  5a:	f641 0007 	movw	r0, #6151	; 0x1807
  5e:	f2cf 0000 	movt	r0, #61440	; 0xf000
  62:	f7ff fffe 	bl	0 <SysCtlPeripheralEnable>
  66:	f640 0004 	movw	r0, #2052	; 0x804
  6a:	f2cf 0000 	movt	r0, #61440	; 0xf000
  6e:	f7ff fffe 	bl	0 <SysCtlPeripheralEnable>
  72:	f640 0001 	movw	r0, #2049	; 0x801
  76:	f2cf 0000 	movt	r0, #61440	; 0xf000
  7a:	f7ff fffe 	bl	0 <SysCtlPeripheralEnable>
  7e:	e002      	b.n	86 <function_WiFi_init+0x86>
  80:	687b      	ldr	r3, [r7, #4]
  82:	3b01      	subs	r3, #1
  84:	607b      	str	r3, [r7, #4]
  86:	687b      	ldr	r3, [r7, #4]
  88:	2b00      	cmp	r3, #0
  8a:	dcf9      	bgt.n	80 <function_WiFi_init+0x80>
  8c:	2001      	movs	r0, #1
  8e:	f2c0 0004 	movt	r0, #4
  92:	f7ff fffe 	bl	0 <GPIOPinConfigure>
  96:	f240 4001 	movw	r0, #1025	; 0x401
  9a:	f2c0 0004 	movt	r0, #4
  9e:	f7ff fffe 	bl	0 <GPIOPinConfigure>
  a2:	f44f 4080 	mov.w	r0, #16384	; 0x4000
  a6:	f2c4 0002 	movt	r0, #16386	; 0x4002
  aa:	2103      	movs	r1, #3
  ac:	f7ff fffe 	bl	0 <GPIOPinTypeUART>
  b0:	f04f 1001 	mov.w	r0, #65537	; 0x10001
  b4:	f7ff fffe 	bl	0 <GPIOPinConfigure>
  b8:	f240 4001 	movw	r0, #1025	; 0x401
  bc:	f2c0 0001 	movt	r0, #1
  c0:	f7ff fffe 	bl	0 <GPIOPinConfigure>
  c4:	f44f 40a0 	mov.w	r0, #20480	; 0x5000
  c8:	f2c4 0000 	movt	r0, #16384	; 0x4000
  cc:	2103      	movs	r1, #3
  ce:	f7ff fffe 	bl	0 <GPIOPinTypeUART>
  d2:	f7ff fffe 	bl	0 <SysCtlClockGet>
  d6:	4603      	mov	r3, r0
  d8:	f44f 5040 	mov.w	r0, #12288	; 0x3000
  dc:	f2c4 0001 	movt	r0, #16385	; 0x4001
  e0:	4619      	mov	r1, r3
  e2:	f44f 5216 	mov.w	r2, #9600	; 0x2580
  e6:	2360      	movs	r3, #96	; 0x60
  e8:	f7ff fffe 	bl	0 <UARTConfigSetExpClk>
  ec:	f7ff fffe 	bl	0 <SysCtlClockGet>
  f0:	4603      	mov	r3, r0
  f2:	f44f 4050 	mov.w	r0, #53248	; 0xd000
  f6:	f2c4 0000 	movt	r0, #16384	; 0x4000
  fa:	4619      	mov	r1, r3
  fc:	f44f 5216 	mov.w	r2, #9600	; 0x2580
 100:	2360      	movs	r3, #96	; 0x60
 102:	f7ff fffe 	bl	0 <UARTConfigSetExpClk>
 106:	f44f 5040 	mov.w	r0, #12288	; 0x3000
 10a:	f2c4 0001 	movt	r0, #16385	; 0x4001
 10e:	f7ff fffe 	bl	0 <UARTFIFOEnable>
 112:	f44f 4050 	mov.w	r0, #53248	; 0xd000
 116:	f2c4 0000 	movt	r0, #16384	; 0x4000
 11a:	f7ff fffe 	bl	0 <UARTFIFOEnable>
 11e:	f44f 5040 	mov.w	r0, #12288	; 0x3000
 122:	f2c4 0001 	movt	r0, #16385	; 0x4001
 126:	f7ff fffe 	bl	0 <UARTEnable>
 12a:	f44f 4050 	mov.w	r0, #53248	; 0xd000
 12e:	f2c4 0000 	movt	r0, #16384	; 0x4000
 132:	f7ff fffe 	bl	0 <UARTEnable>
 136:	f240 0000 	movw	r0, #0
 13a:	f2c0 0000 	movt	r0, #0
 13e:	f240 0100 	movw	r1, #0
 142:	f2c0 0100 	movt	r1, #0
 146:	f7ff fffe 	bl	0 <function_WiFi_init>
 14a:	f240 0000 	movw	r0, #0
 14e:	f2c0 0000 	movt	r0, #0
 152:	f240 0100 	movw	r1, #0
 156:	f2c0 0100 	movt	r1, #0
 15a:	f7ff fffe 	bl	0 <function_WiFi_init>
 15e:	f240 0000 	movw	r0, #0
 162:	f2c0 0000 	movt	r0, #0
 166:	f240 0100 	movw	r1, #0
 16a:	f2c0 0100 	movt	r1, #0
 16e:	f7ff fffe 	bl	0 <function_OS_strcpy>
 172:	f240 0000 	movw	r0, #0
 176:	f2c0 0000 	movt	r0, #0
 17a:	f240 0100 	movw	r1, #0
 17e:	f2c0 0100 	movt	r1, #0
 182:	f7ff fffe 	bl	0 <function_OS_strcat>
 186:	f240 0000 	movw	r0, #0
 18a:	f2c0 0000 	movt	r0, #0
 18e:	f240 0100 	movw	r1, #0
 192:	f2c0 0100 	movt	r1, #0
 196:	f7ff fffe 	bl	0 <function_OS_strcat>
 19a:	f240 0000 	movw	r0, #0
 19e:	f2c0 0000 	movt	r0, #0
 1a2:	f240 0100 	movw	r1, #0
 1a6:	f2c0 0100 	movt	r1, #0
 1aa:	f7ff fffe 	bl	0 <function_OS_strcat>
 1ae:	f240 0000 	movw	r0, #0
 1b2:	f2c0 0000 	movt	r0, #0
 1b6:	f240 0100 	movw	r1, #0
 1ba:	f2c0 0100 	movt	r1, #0
 1be:	f7ff fffe 	bl	0 <function_OS_strcat>
 1c2:	f240 0000 	movw	r0, #0
 1c6:	f2c0 0000 	movt	r0, #0
 1ca:	f240 0100 	movw	r1, #0
 1ce:	f2c0 0100 	movt	r1, #0
 1d2:	f7ff fffe 	bl	0 <function_WiFi_init>
 1d6:	f240 0300 	movw	r3, #0
 1da:	f2c0 0300 	movt	r3, #0
 1de:	2200      	movs	r2, #0
 1e0:	601a      	str	r2, [r3, #0]
 1e2:	f240 0300 	movw	r3, #0
 1e6:	f2c0 0300 	movt	r3, #0
 1ea:	681a      	ldr	r2, [r3, #0]
 1ec:	f240 0300 	movw	r3, #0
 1f0:	f2c0 0300 	movt	r3, #0
 1f4:	2100      	movs	r1, #0
 1f6:	5499      	strb	r1, [r3, r2]
 1f8:	f240 0000 	movw	r0, #0
 1fc:	f2c0 0000 	movt	r0, #0
 200:	f240 0100 	movw	r1, #0
 204:	f2c0 0100 	movt	r1, #0
 208:	f7ff fffe 	bl	0 <function_WiFi_init>
 20c:	f240 0000 	movw	r0, #0
 210:	f2c0 0000 	movt	r0, #0
 214:	f240 0100 	movw	r1, #0
 218:	f2c0 0100 	movt	r1, #0
 21c:	f7ff fffe 	bl	0 <function_OS_strcpy>
 220:	f240 0000 	movw	r0, #0
 224:	f2c0 0000 	movt	r0, #0
 228:	f240 0100 	movw	r1, #0
 22c:	f2c0 0100 	movt	r1, #0
 230:	f7ff fffe 	bl	0 <function_OS_strcat>
 234:	f240 0000 	movw	r0, #0
 238:	f2c0 0000 	movt	r0, #0
 23c:	f240 0100 	movw	r1, #0
 240:	f2c0 0100 	movt	r1, #0
 244:	f7ff fffe 	bl	0 <function_OS_strcat>
 248:	f240 0000 	movw	r0, #0
 24c:	f2c0 0000 	movt	r0, #0
 250:	f240 0100 	movw	r1, #0
 254:	f2c0 0100 	movt	r1, #0
 258:	f7ff fffe 	bl	0 <function_WiFi_init>
 25c:	f240 0300 	movw	r3, #0
 260:	f2c0 0300 	movt	r3, #0
 264:	2200      	movs	r2, #0
 266:	601a      	str	r2, [r3, #0]
 268:	f240 0300 	movw	r3, #0
 26c:	f2c0 0300 	movt	r3, #0
 270:	681a      	ldr	r2, [r3, #0]
 272:	f240 0300 	movw	r3, #0
 276:	f2c0 0300 	movt	r3, #0
 27a:	2100      	movs	r1, #0
 27c:	5499      	strb	r1, [r3, r2]
 27e:	3708      	adds	r7, #8
 280:	46bd      	mov	sp, r7
 282:	bd80      	pop	{r7, pc}

Disassembly of section .text.fuction_WiFi_run:

00000000 <fuction_WiFi_run>:
   0:	b580      	push	{r7, lr}
   2:	b082      	sub	sp, #8
   4:	af00      	add	r7, sp, #0
   6:	2001      	movs	r0, #1
   8:	f7ff fffe 	bl	0 <function_MPI_check_available>
   c:	4603      	mov	r3, r0
   e:	2b00      	cmp	r3, #0
  10:	d038      	beq.n	84 <fuction_WiFi_run+0x84>
  12:	1d3b      	adds	r3, r7, #4
  14:	2001      	movs	r0, #1
  16:	4619      	mov	r1, r3
  18:	f240 0200 	movw	r2, #0
  1c:	f2c0 0200 	movt	r2, #0
  20:	f240 0300 	movw	r3, #0
  24:	f2c0 0300 	movt	r3, #0
  28:	f7ff fffe 	bl	0 <function_MPI_get_message>
  2c:	f240 0300 	movw	r3, #0
  30:	f2c0 0300 	movt	r3, #0
  34:	681b      	ldr	r3, [r3, #0]
  36:	2b00      	cmp	r3, #0
  38:	d024      	beq.n	84 <fuction_WiFi_run+0x84>
  3a:	f240 0000 	movw	r0, #0
  3e:	f2c0 0000 	movt	r0, #0
  42:	f44f 5140 	mov.w	r1, #12288	; 0x3000
  46:	f2c4 0101 	movt	r1, #16385	; 0x4001
  4a:	f7ff fffe 	bl	0 <function_UART_send>
  4e:	f240 0000 	movw	r0, #0
  52:	f2c0 0000 	movt	r0, #0
  56:	f44f 4150 	mov.w	r1, #53248	; 0xd000
  5a:	f2c4 0100 	movt	r1, #16384	; 0x4000
  5e:	f7ff fffe 	bl	0 <function_UART_send>
  62:	f240 0300 	movw	r3, #0
  66:	f2c0 0300 	movt	r3, #0
  6a:	2200      	movs	r2, #0
  6c:	601a      	str	r2, [r3, #0]
  6e:	f240 0300 	movw	r3, #0
  72:	f2c0 0300 	movt	r3, #0
  76:	681a      	ldr	r2, [r3, #0]
  78:	f240 0300 	movw	r3, #0
  7c:	f2c0 0300 	movt	r3, #0
  80:	2100      	movs	r1, #0
  82:	5499      	strb	r1, [r3, r2]
  84:	f240 0000 	movw	r0, #0
  88:	f2c0 0000 	movt	r0, #0
  8c:	f44f 5140 	mov.w	r1, #12288	; 0x3000
  90:	f2c4 0101 	movt	r1, #16385	; 0x4001
  94:	f7ff fffe 	bl	0 <function_UART_recv>
  98:	f240 0000 	movw	r0, #0
  9c:	f2c0 0000 	movt	r0, #0
  a0:	f7ff fffe 	bl	0 <function_OS_strlen>
  a4:	4603      	mov	r3, r0
  a6:	461a      	mov	r2, r3
  a8:	f240 0300 	movw	r3, #0
  ac:	f2c0 0300 	movt	r3, #0
  b0:	601a      	str	r2, [r3, #0]
  b2:	f240 0300 	movw	r3, #0
  b6:	f2c0 0300 	movt	r3, #0
  ba:	681b      	ldr	r3, [r3, #0]
  bc:	2b00      	cmp	r3, #0
  be:	d036      	beq.n	12e <fuction_WiFi_run+0x12e>
  c0:	f240 0300 	movw	r3, #0
  c4:	f2c0 0300 	movt	r3, #0
  c8:	681b      	ldr	r3, [r3, #0]
  ca:	1e5a      	subs	r2, r3, #1
  cc:	f240 0300 	movw	r3, #0
  d0:	f2c0 0300 	movt	r3, #0
  d4:	5c9b      	ldrb	r3, [r3, r2]
  d6:	2b0a      	cmp	r3, #10
  d8:	d129      	bne.n	12e <fuction_WiFi_run+0x12e>
  da:	f240 0300 	movw	r3, #0
  de:	f2c0 0300 	movt	r3, #0
  e2:	681b      	ldr	r3, [r3, #0]
  e4:	3301      	adds	r3, #1
  e6:	2001      	movs	r0, #1
  e8:	2102      	movs	r1, #2
  ea:	461a      	mov	r2, r3
  ec:	f240 0300 	movw	r3, #0
  f0:	f2c0 0300 	movt	r3, #0
  f4:	f7ff fffe 	bl	0 <function_MPI_send_message>
  f8:	f240 0000 	movw	r0, #0
  fc:	f2c0 0000 	movt	r0, #0
 100:	f44f 4150 	mov.w	r1, #53248	; 0xd000
 104:	f2c4 0100 	movt	r1, #16384	; 0x4000
 108:	f7ff fffe 	bl	0 <function_UART_send>
 10c:	f240 0300 	movw	r3, #0
 110:	f2c0 0300 	movt	r3, #0
 114:	2200      	movs	r2, #0
 116:	601a      	str	r2, [r3, #0]
 118:	f240 0300 	movw	r3, #0
 11c:	f2c0 0300 	movt	r3, #0
 120:	681a      	ldr	r2, [r3, #0]
 122:	f240 0300 	movw	r3, #0
 126:	f2c0 0300 	movt	r3, #0
 12a:	2100      	movs	r1, #0
 12c:	5499      	strb	r1, [r3, r2]
 12e:	3708      	adds	r7, #8
 130:	46bd      	mov	sp, r7
 132:	bd80      	pop	{r7, pc}
